; Function Attrs: mustprogress nounwind uwtable
define void @_ZN5osgeo4proj9operation21CoordinateTransformerD2Ev(ptr noundef nonnull align 8 captures(none) dereferenceable(8) %0) unnamed_addr #1 align 2 personality ptr @__gxx_personality_v0 {
  %2 = load ptr, ptr %0, align 8, !tbaa !198
  %3 = load ptr, ptr %2, align 8, !tbaa !202
  %.not = icmp eq ptr %3, null
  br i1 %.not, label %_ZNKSt14default_deleteIN5osgeo4proj9operation21CoordinateTransformer7PrivateEEclEPS4_.exit.i, label %4

4:                                                ; preds = %1
  %5 = invoke noundef ptr @_Z18pj_get_default_ctxv()
          to label %6 unwind label %13

6:                                                ; preds = %4
  invoke void @proj_assign_context(ptr noundef nonnull %3, ptr noundef %5)
          to label %7 unwind label %13

7:                                                ; preds = %6
  %8 = load ptr, ptr %0, align 8, !tbaa !198
  %9 = load ptr, ptr %8, align 8, !tbaa !202
  %10 = invoke ptr @proj_destroy(ptr noundef %9)
          to label %11 unwind label %13

11:                                               ; preds = %7
  %.pr = load ptr, ptr %0, align 8, !tbaa !198
  %.not.i = icmp eq ptr %.pr, null
  br i1 %.not.i, label %_ZNSt10unique_ptrIN5osgeo4proj9operation21CoordinateTransformer7PrivateESt14default_deleteIS4_EED2Ev.exit, label %_ZNKSt14default_deleteIN5osgeo4proj9operation21CoordinateTransformer7PrivateEEclEPS4_.exit.i

_ZNKSt14default_deleteIN5osgeo4proj9operation21CoordinateTransformer7PrivateEEclEPS4_.exit.i: ; preds = %1, %11
  %12 = phi ptr [ %.pr, %11 ], [ %2, %1 ]
  tail call void @_ZdlPvm(ptr noundef nonnull %12, i64 noundef 8) #47
  br label %_ZNSt10unique_ptrIN5osgeo4proj9operation21CoordinateTransformer7PrivateESt14default_deleteIS4_EED2Ev.exit

_ZNSt10unique_ptrIN5osgeo4proj9operation21CoordinateTransformer7PrivateESt14default_deleteIS4_EED2Ev.exit: ; preds = %11, %_ZNKSt14default_deleteIN5osgeo4proj9operation21CoordinateTransformer7PrivateEEclEPS4_.exit.i
  store ptr null, ptr %0, align 8, !tbaa !198
  ret void

13:                                               ; preds = %7, %6, %4
  %14 = landingpad { ptr, i32 }
          catch ptr null
  %15 = extractvalue { ptr, i32 } %14, 0
  tail call void @__clang_call_terminate(ptr %15) #49
  unreachable
}